ccopy_reg
_reconstructor
p0
(cfeedparser
FeedParserDict
p1
c__builtin__
dict
p2
(dp3
S'feed'
p4
g0
(g1
g2
(dp5
S'updated'
p6
V2008-09-07T23:30:17+00:00
p7
sS'subtitle'
p8
VNews for nerds, stuff that matters
p9
sS'updated_parsed'
p10
ctime
struct_time
p11
((I2008
I9
I7
I23
I30
I17
I6
I251
I0
tp12
(dp13
tp14
Rp15
sS'links'
p16
(lp17
g0
(g1
g2
(dp18
S'href'
p19
Vhttp://slashdot.org/
p20
sS'type'
p21
S'text/html'
p22
sS'rel'
p23
S'alternate'
p24
stp25
Rp26
ag0
(g1
g2
(dp27
g21
g22
sg23
g24
stp28
Rp29
ag0
(g1
g2
(dp30
g21
g22
sg23
g24
stp31
Rp32
asS'tags'
p33
(lp34
g0
(g1
g2
(dp35
S'term'
p36
VTechnology
p37
sS'scheme'
p38
NsS'label'
p39
Nstp40
Rp41
asS'image'
p42
g0
(g1
g2
(dp43
g19
Vhttp://s.fsdn.com/sd/topics/topicslashdot.gif
p44
sS'link'
p45
Vhttp://slashdot.org/
p46
sS'title'
p47
VSlashdot
p48
stp49
Rp50
sS'rdf_seq'
p51
V
p52
sg45
g20
sS'entries'
p53
g52
sS'rights_detail'
p54
g0
(g1
g2
(dp55
S'base'
p56
S'http://rss.slashdot.org/Slashdot/slashdot'
p57
sg21
S'text/plain'
p58
sS'language'
p59
NsS'value'
p60
VCopyright 1997-2008, SourceForge, Inc.  All Rights Reserved.
p61
stp62
Rp63
sS'author_detail'
p64
g0
(g1
g2
(dp65
S'name'
p66
g52
sS'email'
p67
Vhelp@slashdot.org
p68
stp69
Rp70
sS'sy_updatebase'
p71
V1970-01-01T00:00+00:00
p72
sS'publisher'
p73
VSourceForge, Inc.
p74
sg59
Ven-us
p75
sg47
VSlashdot
p76
sS'rights'
p77
g61
sS'rdf_li'
p78
g52
sS'subtitle_detail'
p79
g0
(g1
g2
(dp80
g56
S'http://rss.slashdot.org/Slashdot/slashdot'
p81
sg21
S'text/html'
p82
sg59
Nsg60
g9
stp83
Rp84
sS'title_detail'
p85
g0
(g1
g2
(dp86
g56
S'http://rss.slashdot.org/Slashdot/slashdot'
p87
sg21
S'text/plain'
p88
sg59
Nsg60
g76
stp89
Rp90
sS'author'
p91
g68
sS'sy_updateperiod'
p92
Vhourly
p93
sS'sy_updatefrequency'
p94
V1
p95
sS'textinput'
p96
g0
(g1
g2
(dp97
g8
VSearch Slashdot stories
p98
sg45
Vhttp://slashdot.org/search.pl
p99
sg66
Vquery
p100
sg47
VSearch Slashdot
p101
stp102
Rp103
stp104
Rp105
sS'status'
p106
I200
sg6
g11
((I2008
I9
I7
I23
I32
I10
I6
I251
I0
tp107
(dp108
tp109
Rp110
sS'encoding'
p111
S'ISO-8859-1'
p112
sS'bozo'
p113
I0
sg19
S'http://rss.slashdot.org/Slashdot/slashdot'
p114
sS'headers'
p115
(dp116
S'transfer-encoding'
p117
S'chunked'
p118
sS'expires'
p119
S'Sun, 07 Sep 2008 23:43:37 GMT'
p120
sS'server'
p121
S'GFE/1.3'
p122
sS'last-modified'
p123
S'Sun, 07 Sep 2008 23:32:10 GMT'
p124
sS'etag'
p125
S'ZeyDW7eSaVoOw9VRi7cvlZu6G7g'
p126
sS'cache-control'
p127
S'private, max-age=0'
p128
sS'date'
p129
S'Sun, 07 Sep 2008 23:43:37 GMT'
p130
sS'content-type'
p131
S'text/xml; charset=ISO-8859-1'
p132
ssS'version'
p133
S'rss10'
p134
sS'etag'
p135
g126
sS'namespaces'
p136
(dp137
S''
p138
Vhttp://purl.org/rss/1.0/
p139
sS'sy'
p140
Vhttp://purl.org/rss/1.0/modules/syndication/
p141
sS'taxo'
p142
Vhttp://purl.org/rss/1.0/modules/taxonomy/
p143
sS'admin'
p144
Vhttp://webns.net/mvcb/
p145
sS'dc'
p146
Vhttp://purl.org/dc/elements/1.1/
p147
sS'rdf'
p148
Vhttp://www.w3.org/1999/02/22-rdf-syntax-ns#
p149
sS'slash'
p150
Vhttp://purl.org/rss/1.0/modules/slash/
p151
sS'feedburner'
p152
Vhttp://rssnamespace.org/feedburner/ext/1.0
p153
ssg53
(lp154
g0
(g1
g2
(dp155
S'summary_detail'
p156
g0
(g1
g2
(dp157
g56
S'http://rss.slashdot.org/Slashdot/slashdot'
p158
sg21
S'text/html'
p159
sg59
Nsg60
VA Cow writes "As an act of self-defense, the popular BitTorrent site isoHunt has decided to file a petition to ask the Court of British Columbia to confirm that isoHunt -and sister sites Torrentbox and Podtropolis- do not infringe copyright. isoHunt owner Gary explains to TorrentFreak: 'Our petition summarizes BitTorrent technology, its open nature and a whole ecosystem of websites and operators that has developed around it, that CRIA does not own copyright to all files distributed over BitTorrent or on isoHunt websites, and we seek legal validation that we can continue to innovate within this emerging BitTorrent ecosystem on the Internet.'"<p><a href="http://tech.slashdot.org/article.pl?sid=08/09/07/239245&amp;from=rss"><img src="http://slashdot.org/slashdot-it.pl?from=rss&amp;op=image&amp;style=h0&amp;sid=08/09/07/239245" /></a></p><p><a href="http://tech.slashdot.org/article.pl?sid=08/09/07/239245&amp;from=rss">Read more of this story</a> at Slashdot.</p>\u000a<p><a href="http://feedads.googleadservices.com/~a/ICV-vVoLtyYY4Dhb7NO4xVo2LBQ/a"><img src="http://feedads.googleadservices.com/~a/ICV-vVoLtyYY4Dhb7NO4xVo2LBQ/i" border="0" ismap="true" /></a></p><img src="http://feedproxy.google.com/~r/Slashdot/slashdot/~4/kvfYX4OH2AQ" height="1" width="1" />
p160
stp161
Rp162
sg10
g11
((I2008
I9
I7
I23
I19
I0
I6
I251
I0
tp163
(dp164
tp165
Rp166
sg16
(lp167
g0
(g1
g2
(dp168
g19
Vhttp://rss.slashdot.org/~r/Slashdot/slashdot/~3/kvfYX4OH2AQ/article.pl
p169
sg21
g22
sg23
g24
stp170
Rp171
asg33
(lp172
g0
(g1
g2
(dp173
g36
Vinternet
p174
sg38
Nsg39
Nstp175
Rp176
asS'slash_department'
p177
Vpetition-to-the-courts-not-petition-online
p178
sS'feedburner_origlink'
p179
Vhttp://tech.slashdot.org/article.pl?sid=08/09/07/239245&from=rss
p180
sg6
V2008-09-07T23:19:00+00:00
p181
sS'slash_section'
p182
Vtech
p183
sg45
g169
sS'slash_hit_parade'
p184
V2,2,1,1,0,0,0
p185
sS'id'
p186
Vhttp://tech.slashdot.org/article.pl?sid=08/09/07/239245&from=rss
p187
sS'slash_comments'
p188
V2
p189
sg47
VIsoHunt Petitions Canadian Court For Copyright Blessing
p190
sg91
Vtimothy
p191
sS'summary'
p192
VA Cow writes "As an act of self-defense, the popular BitTorrent site isoHunt has decided to file a petition to ask the Court of British Columbia to confirm that isoHunt -and sister sites Torrentbox and Podtropolis- do not infringe copyright. isoHunt owner Gary explains to TorrentFreak: 'Our petition summarizes BitTorrent technology, its open nature and a whole ecosystem of websites and operators that has developed around it, that CRIA does not own copyright to all files distributed over BitTorrent or on isoHunt websites, and we seek legal validation that we can continue to innovate within this emerging BitTorrent ecosystem on the Internet.'"<p><a href="http://tech.slashdot.org/article.pl?sid=08/09/07/239245&amp;from=rss"><img src="http://slashdot.org/slashdot-it.pl?from=rss&amp;op=image&amp;style=h0&amp;sid=08/09/07/239245" /></a></p><p><a href="http://tech.slashdot.org/article.pl?sid=08/09/07/239245&amp;from=rss">Read more of this story</a> at Slashdot.</p>\u000a<p><a href="http://feedads.googleadservices.com/~a/ICV-vVoLtyYY4Dhb7NO4xVo2LBQ/a"><img src="http://feedads.googleadservices.com/~a/ICV-vVoLtyYY4Dhb7NO4xVo2LBQ/i" border="0" ismap="true" /></a></p><img src="http://feedproxy.google.com/~r/Slashdot/slashdot/~4/kvfYX4OH2AQ" height="1" width="1" />
p193
sS'title_detail'
p194
g0
(g1
g2
(dp195
g56
S'http://rss.slashdot.org/Slashdot/slashdot'
p196
sg21
S'text/plain'
p197
sg59
Nsg60
g190
stp198
Rp199
stp200
Rp201
ag0
(g1
g2
(dp202
S'summary_detail'
p203
g0
(g1
g2
(dp204
g56
S'http://rss.slashdot.org/Slashdot/slashdot'
p205
sg21
S'text/html'
p206
sg59
Nsg60
VSlappingOysters writes "Gameplayer are running a comprehensive feature on the history of Nintendo that runs through all 119 years of their existence, from humble card maker to gaming powerhouse. It is documented in chronological order and includes a stack of trivia about the company that will be thoroughly enjoyed by all Nintendo fans. As an interesting side note, it links to a sister article that explores how Mario can improve your sex life."<p><a href="http://games.slashdot.org/article.pl?sid=08/09/07/2147226&amp;from=rss"><img src="http://slashdot.org/slashdot-it.pl?from=rss&amp;op=image&amp;style=h0&amp;sid=08/09/07/2147226" /></a></p><p><a href="http://games.slashdot.org/article.pl?sid=08/09/07/2147226&amp;from=rss">Read more of this story</a> at Slashdot.</p>\u000a<p><a href="http://feedads.googleadservices.com/~a/O5gU2VcDpLwPI1LmV09d7jNU1z4/a"><img src="http://feedads.googleadservices.com/~a/O5gU2VcDpLwPI1LmV09d7jNU1z4/i" border="0" ismap="true" /></a></p><img src="http://feedproxy.google.com/~r/Slashdot/slashdot/~4/ikBhloqZoYY" height="1" width="1" />
p207
stp208
Rp209
sg10
g11
((I2008
I9
I7
I22
I8
I0
I6
I251
I0
tp210
(dp211
tp212
Rp213
sg16
(lp214
g0
(g1
g2
(dp215
g19
Vhttp://rss.slashdot.org/~r/Slashdot/slashdot/~3/ikBhloqZoYY/article.pl
p216
sg21
g22
sg23
g24
stp217
Rp218
asg33
(lp219
g0
(g1
g2
(dp220
g36
Vnintendo
p221
sg38
Nsg39
Nstp222
Rp223
asS'slash_department'
p224
Vmodulo-the-really-juicy-bits
p225
sS'feedburner_origlink'
p226
Vhttp://games.slashdot.org/article.pl?sid=08/09/07/2147226&from=rss
p227
sg6
V2008-09-07T22:08:00+00:00
p228
sS'slash_section'
p229
Vgames
p230
sg45
g216
sS'slash_hit_parade'
p231
V40,39,27,17,4,1,0
p232
sg186
Vhttp://games.slashdot.org/article.pl?sid=08/09/07/2147226&from=rss
p233
sS'slash_comments'
p234
V40
p235
sg47
VThe Complete History of Nintendo
p236
sg91
Vtimothy
p237
sg192
VSlappingOysters writes "Gameplayer are running a comprehensive feature on the history of Nintendo that runs through all 119 years of their existence, from humble card maker to gaming powerhouse. It is documented in chronological order and includes a stack of trivia about the company that will be thoroughly enjoyed by all Nintendo fans. As an interesting side note, it links to a sister article that explores how Mario can improve your sex life."<p><a href="http://games.slashdot.org/article.pl?sid=08/09/07/2147226&amp;from=rss"><img src="http://slashdot.org/slashdot-it.pl?from=rss&amp;op=image&amp;style=h0&amp;sid=08/09/07/2147226" /></a></p><p><a href="http://games.slashdot.org/article.pl?sid=08/09/07/2147226&amp;from=rss">Read more of this story</a> at Slashdot.</p>\u000a<p><a href="http://feedads.googleadservices.com/~a/O5gU2VcDpLwPI1LmV09d7jNU1z4/a"><img src="http://feedads.googleadservices.com/~a/O5gU2VcDpLwPI1LmV09d7jNU1z4/i" border="0" ismap="true" /></a></p><img src="http://feedproxy.google.com/~r/Slashdot/slashdot/~4/ikBhloqZoYY" height="1" width="1" />
p238
sS'title_detail'
p239
g0
(g1
g2
(dp240
g56
S'http://rss.slashdot.org/Slashdot/slashdot'
p241
sg21
S'text/plain'
p242
sg59
Nsg60
g236
stp243
Rp244
stp245
Rp246
ag0
(g1
g2
(dp247
S'summary_detail'
p248
g0
(g1
g2
(dp249
g56
S'http://rss.slashdot.org/Slashdot/slashdot'
p250
sg21
S'text/html'
p251
sg59
Nsg60
Vruphus13 writes with a story about the open-source centric Willow Garage project (last mentioned on Slashdot early last year), which is making progress in creating helpful humanoid robots for household use. From the article: "PR2 is the mobile hardware design for Willow Garage robots, featuring stereo and laser sensors ... Senior citizens are a big part of the target audience that Willow Garage is aiming for. "All industrialized countries are facing aging populations that require assistance and care to remain independent into old age. By 2020 close to 20 percent of the US population will be over 65," the project leaders say. "These numbers are even higher in Western European and Asian countries." Willow Garage is aiming to produce several types of assistive robots." The PR2 robots are capable of performing critical tasks like cleaning rooms and bringing beer from a refrigerator."<p><a href="http://hardware.slashdot.org/article.pl?sid=08/09/07/2033210&amp;from=rss"><img src="http://slashdot.org/slashdot-it.pl?from=rss&amp;op=image&amp;style=h0&amp;sid=08/09/07/2033210" /></a></p><p><a href="http://hardware.slashdot.org/article.pl?sid=08/09/07/2033210&amp;from=rss">Read more of this story</a> at Slashdot.</p>\u000a<p><a href="http://feedads.googleadservices.com/~a/59EUy-3HXLiFCzxgRkgiJbNW5V0/a"><img src="http://feedads.googleadservices.com/~a/59EUy-3HXLiFCzxgRkgiJbNW5V0/i" border="0" ismap="true" /></a></p><img src="http://feedproxy.google.com/~r/Slashdot/slashdot/~4/FJoYdhm2jZw" height="1" width="1" />
p252
stp253
Rp254
sg10
g11
((I2008
I9
I7
I20
I57
I0
I6
I251
I0
tp255
(dp256
tp257
Rp258
sg16
(lp259
g0
(g1
g2
(dp260
g19
Vhttp://rss.slashdot.org/~r/Slashdot/slashdot/~3/FJoYdhm2jZw/article.pl
p261
sg21
g22
sg23
g24
stp262
Rp263
asg33
(lp264
g0
(g1
g2
(dp265
g36
Vrobot
p266
sg38
Nsg39
Nstp267
Rp268
asS'slash_department'
p269
Vbilly-connolly-in-fido
p270
sS'feedburner_origlink'
p271
Vhttp://hardware.slashdot.org/article.pl?sid=08/09/07/2033210&from=rss
p272
sg6
V2008-09-07T20:57:00+00:00
p273
sS'slash_section'
p274
Vhardware
p275
sg45
g261
sS'slash_hit_parade'
p276
V51,45,33,23,3,2,1
p277
sg186
Vhttp://hardware.slashdot.org/article.pl?sid=08/09/07/2033210&from=rss
p278
sS'slash_comments'
p279
V51
p280
sg47
VThe Open Source Humanoid Robot and Its Many Uses
p281
sg91
Vtimothy
p282
sg192
Vruphus13 writes with a story about the open-source centric Willow Garage project (last mentioned on Slashdot early last year), which is making progress in creating helpful humanoid robots for household use. From the article: "PR2 is the mobile hardware design for Willow Garage robots, featuring stereo and laser sensors ... Senior citizens are a big part of the target audience that Willow Garage is aiming for. "All industrialized countries are facing aging populations that require assistance and care to remain independent into old age. By 2020 close to 20 percent of the US population will be over 65," the project leaders say. "These numbers are even higher in Western European and Asian countries." Willow Garage is aiming to produce several types of assistive robots." The PR2 robots are capable of performing critical tasks like cleaning rooms and bringing beer from a refrigerator."<p><a href="http://hardware.slashdot.org/article.pl?sid=08/09/07/2033210&amp;from=rss"><img src="http://slashdot.org/slashdot-it.pl?from=rss&amp;op=image&amp;style=h0&amp;sid=08/09/07/2033210" /></a></p><p><a href="http://hardware.slashdot.org/article.pl?sid=08/09/07/2033210&amp;from=rss">Read more of this story</a> at Slashdot.</p>\u000a<p><a href="http://feedads.googleadservices.com/~a/59EUy-3HXLiFCzxgRkgiJbNW5V0/a"><img src="http://feedads.googleadservices.com/~a/59EUy-3HXLiFCzxgRkgiJbNW5V0/i" border="0" ismap="true" /></a></p><img src="http://feedproxy.google.com/~r/Slashdot/slashdot/~4/FJoYdhm2jZw" height="1" width="1" />
p283
sS'title_detail'
p284
g0
(g1
g2
(dp285
g56
S'http://rss.slashdot.org/Slashdot/slashdot'
p286
sg21
S'text/plain'
p287
sg59
Nsg60
g281
stp288
Rp289
stp290
Rp291
ag0
(g1
g2
(dp292
S'summary_detail'
p293
g0
(g1
g2
(dp294
g56
S'http://rss.slashdot.org/Slashdot/slashdot'
p295
sg21
S'text/html'
p296
sg59
Nsg60
VRoland Piquepaille writes "According to UK and U.S. researchers, it should be possible to fight the global warming effects associated with an increase of dioxide levels by using autonomous cloud-seeding ships to spray salt water into the air. This project would require the deployment of a worldwide fleet of 1,500 unmanned ships to cool the Earth even if the level of carbon dioxide doubled. These 300-tonne ships 'would be powered by the wind, but would not use conventional sails. Instead they would be fitted with a number of 20 m-high, 2.5 m-diameter cylinders known as Flettner rotors. The researchers estimate that such ships would cost between &pound;1m and &pound;2m each. This translates to a US$2.65 to 5.3 billion total cost for the ships only."<p><a href="http://news.slashdot.org/article.pl?sid=08/09/07/199217&amp;from=rss"><img src="http://slashdot.org/slashdot-it.pl?from=rss&amp;op=image&amp;style=h0&amp;sid=08/09/07/199217" /></a></p><p><a href="http://news.slashdot.org/article.pl?sid=08/09/07/199217&amp;from=rss">Read more of this story</a> at Slashdot.</p>\u000a<p><a href="http://feedads.googleadservices.com/~a/bKM895z8bXJSoQzaU9eL0r3jSZ8/a"><img src="http://feedads.googleadservices.com/~a/bKM895z8bXJSoQzaU9eL0r3jSZ8/i" border="0" ismap="true" /></a></p><img src="http://feedproxy.google.com/~r/Slashdot/slashdot/~4/1YrNqKlfpyo" height="1" width="1" />
p297
stp298
Rp299
sg10
g11
((I2008
I9
I7
I19
I41
I0
I6
I251
I0
tp300
(dp301
tp302
Rp303
sg16
(lp304
g0
(g1
g2
(dp305
g19
Vhttp://rss.slashdot.org/~r/Slashdot/slashdot/~3/1YrNqKlfpyo/article.pl
p306
sg21
g22
sg23
g24
stp307
Rp308
asg33
(lp309
g0
(g1
g2
(dp310
g36
Vearth
p311
sg38
Nsg39
Nstp312
Rp313
asS'slash_department'
p314
Vsponsored-by-viagra
p315
sS'feedburner_origlink'
p316
Vhttp://news.slashdot.org/article.pl?sid=08/09/07/199217&from=rss
p317
sg6
V2008-09-07T19:41:00+00:00
p318
sS'slash_section'
p319
Vnews
p320
sg45
g306
sS'slash_hit_parade'
p321
V254,248,197,148,37,22,14
p322
sg186
Vhttp://news.slashdot.org/article.pl?sid=08/09/07/199217&from=rss
p323
sS'slash_comments'
p324
V254
p325
sg47
V1,500-Ship Fleet Proposed To Fight Climate Change
p326
sg91
Vtimothy
p327
sg192
VRoland Piquepaille writes "According to UK and U.S. researchers, it should be possible to fight the global warming effects associated with an increase of dioxide levels by using autonomous cloud-seeding ships to spray salt water into the air. This project would require the deployment of a worldwide fleet of 1,500 unmanned ships to cool the Earth even if the level of carbon dioxide doubled. These 300-tonne ships 'would be powered by the wind, but would not use conventional sails. Instead they would be fitted with a number of 20 m-high, 2.5 m-diameter cylinders known as Flettner rotors. The researchers estimate that such ships would cost between &pound;1m and &pound;2m each. This translates to a US$2.65 to 5.3 billion total cost for the ships only."<p><a href="http://news.slashdot.org/article.pl?sid=08/09/07/199217&amp;from=rss"><img src="http://slashdot.org/slashdot-it.pl?from=rss&amp;op=image&amp;style=h0&amp;sid=08/09/07/199217" /></a></p><p><a href="http://news.slashdot.org/article.pl?sid=08/09/07/199217&amp;from=rss">Read more of this story</a> at Slashdot.</p>\u000a<p><a href="http://feedads.googleadservices.com/~a/bKM895z8bXJSoQzaU9eL0r3jSZ8/a"><img src="http://feedads.googleadservices.com/~a/bKM895z8bXJSoQzaU9eL0r3jSZ8/i" border="0" ismap="true" /></a></p><img src="http://feedproxy.google.com/~r/Slashdot/slashdot/~4/1YrNqKlfpyo" height="1" width="1" />
p328
sS'title_detail'
p329
g0
(g1
g2
(dp330
g56
S'http://rss.slashdot.org/Slashdot/slashdot'
p331
sg21
S'text/plain'
p332
sg59
Nsg60
g326
stp333
Rp334
stp335
Rp336
ag0
(g1
g2
(dp337
S'summary_detail'
p338
g0
(g1
g2
(dp339
g56
S'http://rss.slashdot.org/Slashdot/slashdot'
p340
sg21
S'text/html'
p341
sg59
Nsg60
VGrayskull writes "The OS/2 and eComStation community are trying to get open source software ported to that platform by opening bounties and allowing people to chip in with prize money. Currently the most important open bounties are Java 6 port, Icon routines in OS/2, VirtualBox port, Extend multimedia and OpenWengo ports."<p><a href="http://tech.slashdot.org/article.pl?sid=08/09/07/1729255&amp;from=rss"><img src="http://slashdot.org/slashdot-it.pl?from=rss&amp;op=image&amp;style=h0&amp;sid=08/09/07/1729255" /></a></p><p><a href="http://tech.slashdot.org/article.pl?sid=08/09/07/1729255&amp;from=rss">Read more of this story</a> at Slashdot.</p>\u000a<p><a href="http://feedads.googleadservices.com/~a/xD0nUu-7OnhAMTD_6tpqtgH7an8/a"><img src="http://feedads.googleadservices.com/~a/xD0nUu-7OnhAMTD_6tpqtgH7an8/i" border="0" ismap="true" /></a></p><img src="http://feedproxy.google.com/~r/Slashdot/slashdot/~4/q-ZfGPlj-no" height="1" width="1" />
p342
stp343
Rp344
sg10
g11
((I2008
I9
I7
I18
I34
I0
I6
I251
I0
tp345
(dp346
tp347
Rp348
sg16
(lp349
g0
(g1
g2
(dp350
g19
Vhttp://rss.slashdot.org/~r/Slashdot/slashdot/~3/q-ZfGPlj-no/article.pl
p351
sg21
g22
sg23
g24
stp352
Rp353
asg33
(lp354
g0
(g1
g2
(dp355
g36
Vsoftware
p356
sg38
Nsg39
Nstp357
Rp358
asS'slash_department'
p359
Vwarped-minds
p360
sS'feedburner_origlink'
p361
Vhttp://tech.slashdot.org/article.pl?sid=08/09/07/1729255&from=rss
p362
sg6
V2008-09-07T18:34:00+00:00
p363
sS'slash_section'
p364
Vtech
p365
sg45
g351
sS'slash_hit_parade'
p366
V150,146,122,99,38,29,17
p367
sg186
Vhttp://tech.slashdot.org/article.pl?sid=08/09/07/1729255&from=rss
p368
sS'slash_comments'
p369
V150
p370
sg47
VOS/2 Community Tries Bounty System
p371
sg91
Vtimothy
p372
sg192
VGrayskull writes "The OS/2 and eComStation community are trying to get open source software ported to that platform by opening bounties and allowing people to chip in with prize money. Currently the most important open bounties are Java 6 port, Icon routines in OS/2, VirtualBox port, Extend multimedia and OpenWengo ports."<p><a href="http://tech.slashdot.org/article.pl?sid=08/09/07/1729255&amp;from=rss"><img src="http://slashdot.org/slashdot-it.pl?from=rss&amp;op=image&amp;style=h0&amp;sid=08/09/07/1729255" /></a></p><p><a href="http://tech.slashdot.org/article.pl?sid=08/09/07/1729255&amp;from=rss">Read more of this story</a> at Slashdot.</p>\u000a<p><a href="http://feedads.googleadservices.com/~a/xD0nUu-7OnhAMTD_6tpqtgH7an8/a"><img src="http://feedads.googleadservices.com/~a/xD0nUu-7OnhAMTD_6tpqtgH7an8/i" border="0" ismap="true" /></a></p><img src="http://feedproxy.google.com/~r/Slashdot/slashdot/~4/q-ZfGPlj-no" height="1" width="1" />
p373
sS'title_detail'
p374
g0
(g1
g2
(dp375
g56
S'http://rss.slashdot.org/Slashdot/slashdot'
p376
sg21
S'text/plain'
p377
sg59
Nsg60
g371
stp378
Rp379
stp380
Rp381
ag0
(g1
g2
(dp382
S'summary_detail'
p383
g0
(g1
g2
(dp384
g56
S'http://rss.slashdot.org/Slashdot/slashdot'
p385
sg21
S'text/html'
p386
sg59
Nsg60
VRaindeer writes to share his article about peering and transit between networks, which begins: "In 2005, AT&amp;T CEO Ed Whitacre famously told BusinessWeek, 'What they [Google, Vonage, and others] would like to do is to use my pipes free. But I ain't going to let them do that...Why should they be allowed to use my pipes?' The story of how the Internet is structured economically is not so much a story about net neutrality, but rather it's a story about how ISPs actually do use AT&amp;T's pipes for free, and about why AT&amp;T actually wants them to do so. These inter-ISP sharing arrangements are known as 'peering' or 'transit,' and they are the two mechanisms that underlie the interconnection of networks that form the Internet. In this article, I'll take a look at the economics of peering and transit in order to give you a better sense of how traffic flows from point A to point B on the Internet, and how it does so mostly without problems, despite the fact that the Internet is a patchwork quilt of networks run by companies, schools, and governments."<p><a href="http://tech.slashdot.org/article.pl?sid=08/09/07/1636203&amp;from=rss"><img src="http://slashdot.org/slashdot-it.pl?from=rss&amp;op=image&amp;style=h0&amp;sid=08/09/07/1636203" /></a></p><p><a href="http://tech.slashdot.org/article.pl?sid=08/09/07/1636203&amp;from=rss">Read more of this story</a> at Slashdot.</p>\u000a<p><a href="http://feedads.googleadservices.com/~a/tPNS2cwoqRnn8XI9ynpCg0alupA/a"><img src="http://feedads.googleadservices.com/~a/tPNS2cwoqRnn8XI9ynpCg0alupA/i" border="0" ismap="true" /></a></p><img src="http://feedproxy.google.com/~r/Slashdot/slashdot/~4/VgN9KN9_Zzg" height="1" width="1" />
p387
stp388
Rp389
sg10
g11
((I2008
I9
I7
I17
I26
I0
I6
I251
I0
tp390
(dp391
tp392
Rp393
sg16
(lp394
g0
(g1
g2
(dp395
g19
Vhttp://rss.slashdot.org/~r/Slashdot/slashdot/~3/VgN9KN9_Zzg/article.pl
p396
sg21
g22
sg23
g24
stp397
Rp398
asg33
(lp399
g0
(g1
g2
(dp400
g36
Vnetworking
p401
sg38
Nsg39
Nstp402
Rp403
asS'slash_department'
p404
Vvery-carefully
p405
sS'feedburner_origlink'
p406
Vhttp://tech.slashdot.org/article.pl?sid=08/09/07/1636203&from=rss
p407
sg6
V2008-09-07T17:26:00+00:00
p408
sS'slash_section'
p409
Vtech
p410
sg45
g396
sS'slash_hit_parade'
p411
V59,55,43,31,12,11,8
p412
sg186
Vhttp://tech.slashdot.org/article.pl?sid=08/09/07/1636203&from=rss
p413
sS'slash_comments'
p414
V59
p415
sg47
VHow Networks Interact - Peering and Transit Explained
p416
sg91
VSoulskill
p417
sg192
VRaindeer writes to share his article about peering and transit between networks, which begins: "In 2005, AT&amp;T CEO Ed Whitacre famously told BusinessWeek, 'What they [Google, Vonage, and others] would like to do is to use my pipes free. But I ain't going to let them do that...Why should they be allowed to use my pipes?' The story of how the Internet is structured economically is not so much a story about net neutrality, but rather it's a story about how ISPs actually do use AT&amp;T's pipes for free, and about why AT&amp;T actually wants them to do so. These inter-ISP sharing arrangements are known as 'peering' or 'transit,' and they are the two mechanisms that underlie the interconnection of networks that form the Internet. In this article, I'll take a look at the economics of peering and transit in order to give you a better sense of how traffic flows from point A to point B on the Internet, and how it does so mostly without problems, despite the fact that the Internet is a patchwork quilt of networks run by companies, schools, and governments."<p><a href="http://tech.slashdot.org/article.pl?sid=08/09/07/1636203&amp;from=rss"><img src="http://slashdot.org/slashdot-it.pl?from=rss&amp;op=image&amp;style=h0&amp;sid=08/09/07/1636203" /></a></p><p><a href="http://tech.slashdot.org/article.pl?sid=08/09/07/1636203&amp;from=rss">Read more of this story</a> at Slashdot.</p>\u000a<p><a href="http://feedads.googleadservices.com/~a/tPNS2cwoqRnn8XI9ynpCg0alupA/a"><img src="http://feedads.googleadservices.com/~a/tPNS2cwoqRnn8XI9ynpCg0alupA/i" border="0" ismap="true" /></a></p><img src="http://feedproxy.google.com/~r/Slashdot/slashdot/~4/VgN9KN9_Zzg" height="1" width="1" />
p418
sS'title_detail'
p419
g0
(g1
g2
(dp420
g56
S'http://rss.slashdot.org/Slashdot/slashdot'
p421
sg21
S'text/plain'
p422
sg59
Nsg60
g416
stp423
Rp424
stp425
Rp426
ag0
(g1
g2
(dp427
S'summary_detail'
p428
g0
(g1
g2
(dp429
g56
S'http://rss.slashdot.org/Slashdot/slashdot'
p430
sg21
S'text/html'
p431
sg59
Nsg60
Vfigona brings news that India will be allowed to join the Nuclear Suppliers Group (NSG). A waiver was approved yesterday that provided an exception to the requirements that India sign the Nuclear Non-Proliferation Treaty and the Comprehensive Nuclear Test-Ban Treaty. This means India will be able to buy nuclear fuel from the world market and purchase reactors from the US, France, and Russia; something it has been unable to do since it began nuclear testing in 1974 (which inspired the creation of the NSG). The waiver does not include terms to cut off access if India resumes nuclear testing, but the US Congress drafted a letter stating their willingness to do so. Opponents of the waiver have called it a "non-proliferation disaster."<p><a href="http://news.slashdot.org/article.pl?sid=08/09/07/1541241&amp;from=rss"><img src="http://slashdot.org/slashdot-it.pl?from=rss&amp;op=image&amp;style=h0&amp;sid=08/09/07/1541241" /></a></p><p><a href="http://news.slashdot.org/article.pl?sid=08/09/07/1541241&amp;from=rss">Read more of this story</a> at Slashdot.</p>\u000a<p><a href="http://feedads.googleadservices.com/~a/pe127TfZb1W76FHvstnEwnsg9SI/a"><img src="http://feedads.googleadservices.com/~a/pe127TfZb1W76FHvstnEwnsg9SI/i" border="0" ismap="true" /></a></p><img src="http://feedproxy.google.com/~r/Slashdot/slashdot/~4/pthXnmhbsDA" height="1" width="1" />
p432
stp433
Rp434
sg10
g11
((I2008
I9
I7
I16
I25
I0
I6
I251
I0
tp435
(dp436
tp437
Rp438
sg16
(lp439
g0
(g1
g2
(dp440
g19
Vhttp://rss.slashdot.org/~r/Slashdot/slashdot/~3/pthXnmhbsDA/article.pl
p441
sg21
g22
sg23
g24
stp442
Rp443
asg33
(lp444
g0
(g1
g2
(dp445
g36
Vnews
p446
sg38
Nsg39
Nstp447
Rp448
asS'slash_department'
p449
Vwelcome-to-the-club-play-nice-ok
p450
sS'feedburner_origlink'
p451
Vhttp://news.slashdot.org/article.pl?sid=08/09/07/1541241&from=rss
p452
sg6
V2008-09-07T16:25:00+00:00
p453
sS'slash_section'
p454
Vnews
p455
sg45
g441
sS'slash_hit_parade'
p456
V226,219,156,107,30,18,14
p457
sg186
Vhttp://news.slashdot.org/article.pl?sid=08/09/07/1541241&from=rss
p458
sS'slash_comments'
p459
V226
p460
sg47
VIndia Joins Nuclear Market
p461
sg91
VSoulskill
p462
sg192
Vfigona brings news that India will be allowed to join the Nuclear Suppliers Group (NSG). A waiver was approved yesterday that provided an exception to the requirements that India sign the Nuclear Non-Proliferation Treaty and the Comprehensive Nuclear Test-Ban Treaty. This means India will be able to buy nuclear fuel from the world market and purchase reactors from the US, France, and Russia; something it has been unable to do since it began nuclear testing in 1974 (which inspired the creation of the NSG). The waiver does not include terms to cut off access if India resumes nuclear testing, but the US Congress drafted a letter stating their willingness to do so. Opponents of the waiver have called it a "non-proliferation disaster."<p><a href="http://news.slashdot.org/article.pl?sid=08/09/07/1541241&amp;from=rss"><img src="http://slashdot.org/slashdot-it.pl?from=rss&amp;op=image&amp;style=h0&amp;sid=08/09/07/1541241" /></a></p><p><a href="http://news.slashdot.org/article.pl?sid=08/09/07/1541241&amp;from=rss">Read more of this story</a> at Slashdot.</p>\u000a<p><a href="http://feedads.googleadservices.com/~a/pe127TfZb1W76FHvstnEwnsg9SI/a"><img src="http://feedads.googleadservices.com/~a/pe127TfZb1W76FHvstnEwnsg9SI/i" border="0" ismap="true" /></a></p><img src="http://feedproxy.google.com/~r/Slashdot/slashdot/~4/pthXnmhbsDA" height="1" width="1" />
p463
sS'title_detail'
p464
g0
(g1
g2
(dp465
g56
S'http://rss.slashdot.org/Slashdot/slashdot'
p466
sg21
S'text/plain'
p467
sg59
Nsg60
g461
stp468
Rp469
stp470
Rp471
ag0
(g1
g2
(dp472
S'summary_detail'
p473
g0
(g1
g2
(dp474
g56
S'http://rss.slashdot.org/Slashdot/slashdot'
p475
sg21
S'text/html'
p476
sg59
Nsg60
Vquinnlynn writes "A group of research scientists at Yale discovered that the evolution of opposable thumbs and upright walking in humans is due to changes in the genome in the areas still classified as "junk DNA." Quoting: 'Results from a comparative analysis of the human, chimpanzee, rhesus macaque and other genomes reported in the journal Science suggest our evolution may have been driven not only by sequence changes in genes, but by changes in areas of the genome once thought of as "junk DNA." ... Researchers have long suspected changes in gene expression contributed to human evolution, but this had been difficult to study until recently because most of the sequences that control genes had not been identified. In the last several years, scientists have discovered that non-coding regions of the genome, far from being junk, contain thousands of regulatory elements that act as genetic "switches" to turn genes on or off.'" Yale has also recently completed sequencing the Trichoplax genome. Trichoplax has the simplest known animal genome, and it shares 80 percent of its genes (comprised of 98 million base pairs) with humanity. Professor Stephen Dellaporta was quoted saying, "We are [excited] to find that Trichoplax contains shared pathways and defined regulatory sequences that link these most primitive ancestors to higher animal species. The Trichoplax genome will serve as a type of 'Rosetta Stone' for understanding the origins of animal-specific pathways."<p><a href="http://science.slashdot.org/article.pl?sid=08/09/07/1439239&amp;from=rss"><img src="http://slashdot.org/slashdot-it.pl?from=rss&amp;op=image&amp;style=h0&amp;sid=08/09/07/1439239" /></a></p><p><a href="http://science.slashdot.org/article.pl?sid=08/09/07/1439239&amp;from=rss">Read more of this story</a> at Slashdot.</p>\u000a<p><a href="http://feedads.googleadservices.com/~a/AvMQt_WyXZgtkWaoa-f0tRO-ThY/a"><img src="http://feedads.googleadservices.com/~a/AvMQt_WyXZgtkWaoa-f0tRO-ThY/i" border="0" ismap="true" /></a></p><img src="http://feedproxy.google.com/~r/Slashdot/slashdot/~4/jMKjzhlrCvg" height="1" width="1" />
p477
stp478
Rp479
sg10
g11
((I2008
I9
I7
I15
I25
I0
I6
I251
I0
tp480
(dp481
tp482
Rp483
sg16
(lp484
g0
(g1
g2
(dp485
g19
Vhttp://rss.slashdot.org/~r/Slashdot/slashdot/~3/jMKjzhlrCvg/article.pl
p486
sg21
g22
sg23
g24
stp487
Rp488
asg33
(lp489
g0
(g1
g2
(dp490
g36
Vbiotech
p491
sg38
Nsg39
Nstp492
Rp493
asS'slash_department'
p494
Vstranded-pairs
p495
sS'feedburner_origlink'
p496
Vhttp://science.slashdot.org/article.pl?sid=08/09/07/1439239&from=rss
p497
sg6
V2008-09-07T15:25:00+00:00
p498
sS'slash_section'
p499
Vscience
p500
sg45
g486
sS'slash_hit_parade'
p501
V159,154,121,99,41,11,9
p502
sg186
Vhttp://science.slashdot.org/article.pl?sid=08/09/07/1439239&from=rss
p503
sS'slash_comments'
p504
V159
p505
sg47
VOpposable Thumbs and Upright Walking Caused By "Junk DNA"
p506
sg91
VSoulskill
p507
sg192
Vquinnlynn writes "A group of research scientists at Yale discovered that the evolution of opposable thumbs and upright walking in humans is due to changes in the genome in the areas still classified as "junk DNA." Quoting: 'Results from a comparative analysis of the human, chimpanzee, rhesus macaque and other genomes reported in the journal Science suggest our evolution may have been driven not only by sequence changes in genes, but by changes in areas of the genome once thought of as "junk DNA." ... Researchers have long suspected changes in gene expression contributed to human evolution, but this had been difficult to study until recently because most of the sequences that control genes had not been identified. In the last several years, scientists have discovered that non-coding regions of the genome, far from being junk, contain thousands of regulatory elements that act as genetic "switches" to turn genes on or off.'" Yale has also recently completed sequencing the Trichoplax genome. Trichoplax has the simplest known animal genome, and it shares 80 percent of its genes (comprised of 98 million base pairs) with humanity. Professor Stephen Dellaporta was quoted saying, "We are [excited] to find that Trichoplax contains shared pathways and defined regulatory sequences that link these most primitive ancestors to higher animal species. The Trichoplax genome will serve as a type of 'Rosetta Stone' for understanding the origins of animal-specific pathways."<p><a href="http://science.slashdot.org/article.pl?sid=08/09/07/1439239&amp;from=rss"><img src="http://slashdot.org/slashdot-it.pl?from=rss&amp;op=image&amp;style=h0&amp;sid=08/09/07/1439239" /></a></p><p><a href="http://science.slashdot.org/article.pl?sid=08/09/07/1439239&amp;from=rss">Read more of this story</a> at Slashdot.</p>\u000a<p><a href="http://feedads.googleadservices.com/~a/AvMQt_WyXZgtkWaoa-f0tRO-ThY/a"><img src="http://feedads.googleadservices.com/~a/AvMQt_WyXZgtkWaoa-f0tRO-ThY/i" border="0" ismap="true" /></a></p><img src="http://feedproxy.google.com/~r/Slashdot/slashdot/~4/jMKjzhlrCvg" height="1" width="1" />
p508
sS'title_detail'
p509
g0
(g1
g2
(dp510
g56
S'http://rss.slashdot.org/Slashdot/slashdot'
p511
sg21
S'text/plain'
p512
sg59
Nsg60
g506
stp513
Rp514
stp515
Rp516
ag0
(g1
g2
(dp517
S'summary_detail'
p518
g0
(g1
g2
(dp519
g56
S'http://rss.slashdot.org/Slashdot/slashdot'
p520
sg21
S'text/html'
p521
sg59
Nsg60
Vbrigc writes "Here's one that's got me stumped. A friend of mine who is blind asked me for help tracking down a cell phone for him. He's interested in a flip phone with well-defined separations between the keys, and as much voice control as possible. Battery life is the only other thing he mentioned. Preferably something that would work on AT&amp;T's network in the US. We spent part of the afternoon in a local AT&amp;T store checking out all the flip phones they had and didn't find one he really loved. Anyone have any ideas?" There was a story some months back about a phone that would read to you by interpreting pictures from the built-in camera, but it doesn't have much information about usability. I'm sure it'd be handy to have some sort of text-to-speech option for common cell phone features like caller ID and text messaging, or even just reading menu names.<p><a href="http://ask.slashdot.org/article.pl?sid=08/09/07/1342239&amp;from=rss"><img src="http://slashdot.org/slashdot-it.pl?from=rss&amp;op=image&amp;style=h0&amp;sid=08/09/07/1342239" /></a></p><p><a href="http://ask.slashdot.org/article.pl?sid=08/09/07/1342239&amp;from=rss">Read more of this story</a> at Slashdot.</p>\u000a<p><a href="http://feedads.googleadservices.com/~a/mZlVeude0QGtpm0eRyBXaFIiiMI/a"><img src="http://feedads.googleadservices.com/~a/mZlVeude0QGtpm0eRyBXaFIiiMI/i" border="0" ismap="true" /></a></p><img src="http://feedproxy.google.com/~r/Slashdot/slashdot/~4/UxZKv8q0vQc" height="1" width="1" />
p522
stp523
Rp524
sg10
g11
((I2008
I9
I7
I14
I22
I0
I6
I251
I0
tp525
(dp526
tp527
Rp528
sg16
(lp529
g0
(g1
g2
(dp530
g19
Vhttp://rss.slashdot.org/~r/Slashdot/slashdot/~3/UxZKv8q0vQc/article.pl
p531
sg21
g22
sg23
g24
stp532
Rp533
asg33
(lp534
g0
(g1
g2
(dp535
g36
Vcellphones
p536
sg38
Nsg39
Nstp537
Rp538
asS'slash_department'
p539
Vcan-you-see-me-now?
p540
sS'feedburner_origlink'
p541
Vhttp://ask.slashdot.org/article.pl?sid=08/09/07/1342239&from=rss
p542
sg6
V2008-09-07T14:22:00+00:00
p543
sS'slash_section'
p544
Vaskslashdot
p545
sg45
g531
sS'slash_hit_parade'
p546
V101,92,71,55,18,11,6
p547
sg186
Vhttp://ask.slashdot.org/article.pl?sid=08/09/07/1342239&from=rss
p548
sS'slash_comments'
p549
V101
p550
sg47
VCell Phone For the Blind?
p551
sg91
VSoulskill
p552
sg192
Vbrigc writes "Here's one that's got me stumped. A friend of mine who is blind asked me for help tracking down a cell phone for him. He's interested in a flip phone with well-defined separations between the keys, and as much voice control as possible. Battery life is the only other thing he mentioned. Preferably something that would work on AT&amp;T's network in the US. We spent part of the afternoon in a local AT&amp;T store checking out all the flip phones they had and didn't find one he really loved. Anyone have any ideas?" There was a story some months back about a phone that would read to you by interpreting pictures from the built-in camera, but it doesn't have much information about usability. I'm sure it'd be handy to have some sort of text-to-speech option for common cell phone features like caller ID and text messaging, or even just reading menu names.<p><a href="http://ask.slashdot.org/article.pl?sid=08/09/07/1342239&amp;from=rss"><img src="http://slashdot.org/slashdot-it.pl?from=rss&amp;op=image&amp;style=h0&amp;sid=08/09/07/1342239" /></a></p><p><a href="http://ask.slashdot.org/article.pl?sid=08/09/07/1342239&amp;from=rss">Read more of this story</a> at Slashdot.</p>\u000a<p><a href="http://feedads.googleadservices.com/~a/mZlVeude0QGtpm0eRyBXaFIiiMI/a"><img src="http://feedads.googleadservices.com/~a/mZlVeude0QGtpm0eRyBXaFIiiMI/i" border="0" ismap="true" /></a></p><img src="http://feedproxy.google.com/~r/Slashdot/slashdot/~4/UxZKv8q0vQc" height="1" width="1" />
p553
sS'title_detail'
p554
g0
(g1
g2
(dp555
g56
S'http://rss.slashdot.org/Slashdot/slashdot'
p556
sg21
S'text/plain'
p557
sg59
Nsg60
g551
stp558
Rp559
stp560
Rp561
ag0
(g1
g2
(dp562
S'summary_detail'
p563
g0
(g1
g2
(dp564
g56
S'http://rss.slashdot.org/Slashdot/slashdot'
p565
sg21
S'text/html'
p566
sg59
Nsg60
VBridger tips news that NCSoft's Tabula Rasa, created in part by Richard Garriott, is running an unusual promotion right now. Garriott is going to the International Space Station on October 12th, and he'll take with him a digital record of the DNA of various players and celebrities. The basic plot of Tabula Rasa is that Earth was attacked and humans almost completely wiped out. Garriott's promotion is playing on that idea; the hard drive with the DNA data will be left in orbit "just in case" something happens to humanity on Earth. NCSoft has been running a variety of polls and contests to include further data about humans on the hard drive. The deadline for joining the project has recently been extended to September 29th.<p><a href="http://games.slashdot.org/article.pl?sid=08/09/07/133232&amp;from=rss"><img src="http://slashdot.org/slashdot-it.pl?from=rss&amp;op=image&amp;style=h0&amp;sid=08/09/07/133232" /></a></p><p><a href="http://games.slashdot.org/article.pl?sid=08/09/07/133232&amp;from=rss">Read more of this story</a> at Slashdot.</p>\u000a<p><a href="http://feedads.googleadservices.com/~a/azP-kb8FGwvTw_oT-cDkwNYGxuk/a"><img src="http://feedads.googleadservices.com/~a/azP-kb8FGwvTw_oT-cDkwNYGxuk/i" border="0" ismap="true" /></a></p><img src="http://feedproxy.google.com/~r/Slashdot/slashdot/~4/kHrpL2e1Kb4" height="1" width="1" />
p567
stp568
Rp569
sg10
g11
((I2008
I9
I7
I13
I23
I0
I6
I251
I0
tp570
(dp571
tp572
Rp573
sg16
(lp574
g0
(g1
g2
(dp575
g19
Vhttp://rss.slashdot.org/~r/Slashdot/slashdot/~3/kHrpL2e1Kb4/article.pl
p576
sg21
g22
sg23
g24
stp577
Rp578
asg33
(lp579
g0
(g1
g2
(dp580
g36
Vspace
p581
sg38
Nsg39
Nstp582
Rp583
asS'slash_department'
p584
Vjust-in-case
p585
sS'feedburner_origlink'
p586
Vhttp://games.slashdot.org/article.pl?sid=08/09/07/133232&from=rss
p587
sg6
V2008-09-07T13:23:00+00:00
p588
sS'slash_section'
p589
Vgames
p590
sg45
g576
sS'slash_hit_parade'
p591
V80,77,56,43,10,8,3
p592
sg186
Vhttp://games.slashdot.org/article.pl?sid=08/09/07/133232&from=rss
p593
sS'slash_comments'
p594
V80
p595
sg47
V<em>Tabula Rasa</em> Promotion To Send Gamers' DNA to Space
p596
sg91
VSoulskill
p597
sg192
VBridger tips news that NCSoft's Tabula Rasa, created in part by Richard Garriott, is running an unusual promotion right now. Garriott is going to the International Space Station on October 12th, and he'll take with him a digital record of the DNA of various players and celebrities. The basic plot of Tabula Rasa is that Earth was attacked and humans almost completely wiped out. Garriott's promotion is playing on that idea; the hard drive with the DNA data will be left in orbit "just in case" something happens to humanity on Earth. NCSoft has been running a variety of polls and contests to include further data about humans on the hard drive. The deadline for joining the project has recently been extended to September 29th.<p><a href="http://games.slashdot.org/article.pl?sid=08/09/07/133232&amp;from=rss"><img src="http://slashdot.org/slashdot-it.pl?from=rss&amp;op=image&amp;style=h0&amp;sid=08/09/07/133232" /></a></p><p><a href="http://games.slashdot.org/article.pl?sid=08/09/07/133232&amp;from=rss">Read more of this story</a> at Slashdot.</p>\u000a<p><a href="http://feedads.googleadservices.com/~a/azP-kb8FGwvTw_oT-cDkwNYGxuk/a"><img src="http://feedads.googleadservices.com/~a/azP-kb8FGwvTw_oT-cDkwNYGxuk/i" border="0" ismap="true" /></a></p><img src="http://feedproxy.google.com/~r/Slashdot/slashdot/~4/kHrpL2e1Kb4" height="1" width="1" />
p598
sS'title_detail'
p599
g0
(g1
g2
(dp600
g56
S'http://rss.slashdot.org/Slashdot/slashdot'
p601
sg21
S'text/plain'
p602
sg59
Nsg60
g596
stp603
Rp604
stp605
Rp606
ag0
(g1
g2
(dp607
S'summary_detail'
p608
g0
(g1
g2
(dp609
g56
S'http://rss.slashdot.org/Slashdot/slashdot'
p610
sg21
S'text/html'
p611
sg59
Nsg60
Vtonsofpcs writes "On Monday, September 8, Wilmington, NC will be the first television market (#135) to make the switch to DTV by shutting off their analog transmitters. This forum will be posting updates throughout the coming months to keep everyone updated on how the transition works so that we are all prepared come February 17, 2009. So far, it seems Wilmington will still be going ahead as planned, despite Tropical Storm Hanna's proximity."<p><a href="http://tech.slashdot.org/article.pl?sid=08/09/07/1155244&amp;from=rss"><img src="http://slashdot.org/slashdot-it.pl?from=rss&amp;op=image&amp;style=h0&amp;sid=08/09/07/1155244" /></a></p><p><a href="http://tech.slashdot.org/article.pl?sid=08/09/07/1155244&amp;from=rss">Read more of this story</a> at Slashdot.</p>\u000a<p><a href="http://feedads.googleadservices.com/~a/ezSL0BFHdv45YRtuBkvU4RX8hNU/a"><img src="http://feedads.googleadservices.com/~a/ezSL0BFHdv45YRtuBkvU4RX8hNU/i" border="0" ismap="true" /></a></p><img src="http://feedproxy.google.com/~r/Slashdot/slashdot/~4/-EbNLIuL13I" height="1" width="1" />
p612
stp613
Rp614
sg10
g11
((I2008
I9
I7
I12
I24
I0
I6
I251
I0
tp615
(dp616
tp617
Rp618
sg16
(lp619
g0
(g1
g2
(dp620
g19
Vhttp://rss.slashdot.org/~r/Slashdot/slashdot/~3/-EbNLIuL13I/article.pl
p621
sg21
g22
sg23
g24
stp622
Rp623
asg33
(lp624
g0
(g1
g2
(dp625
g36
Vtv
p626
sg38
Nsg39
Nstp627
Rp628
asS'slash_department'
p629
Vif-so,-can-the-commercials-stop?
p630
sS'feedburner_origlink'
p631
Vhttp://tech.slashdot.org/article.pl?sid=08/09/07/1155244&from=rss
p632
sg6
V2008-09-07T12:24:00+00:00
p633
sS'slash_section'
p634
Vtech
p635
sg45
g621
sS'slash_hit_parade'
p636
V252,249,195,138,29,14,9
p637
sg186
Vhttp://tech.slashdot.org/article.pl?sid=08/09/07/1155244&from=rss
p638
sS'slash_comments'
p639
V252
p640
sg47
VIs the US Ready For the Switch To DTV?
p641
sg91
VSoulskill
p642
sg192
Vtonsofpcs writes "On Monday, September 8, Wilmington, NC will be the first television market (#135) to make the switch to DTV by shutting off their analog transmitters. This forum will be posting updates throughout the coming months to keep everyone updated on how the transition works so that we are all prepared come February 17, 2009. So far, it seems Wilmington will still be going ahead as planned, despite Tropical Storm Hanna's proximity."<p><a href="http://tech.slashdot.org/article.pl?sid=08/09/07/1155244&amp;from=rss"><img src="http://slashdot.org/slashdot-it.pl?from=rss&amp;op=image&amp;style=h0&amp;sid=08/09/07/1155244" /></a></p><p><a href="http://tech.slashdot.org/article.pl?sid=08/09/07/1155244&amp;from=rss">Read more of this story</a> at Slashdot.</p>\u000a<p><a href="http://feedads.googleadservices.com/~a/ezSL0BFHdv45YRtuBkvU4RX8hNU/a"><img src="http://feedads.googleadservices.com/~a/ezSL0BFHdv45YRtuBkvU4RX8hNU/i" border="0" ismap="true" /></a></p><img src="http://feedproxy.google.com/~r/Slashdot/slashdot/~4/-EbNLIuL13I" height="1" width="1" />
p643
sS'title_detail'
p644
g0
(g1
g2
(dp645
g56
S'http://rss.slashdot.org/Slashdot/slashdot'
p646
sg21
S'text/plain'
p647
sg59
Nsg60
g641
stp648
Rp649
stp650
Rp651
ag0
(g1
g2
(dp652
S'summary_detail'
p653
g0
(g1
g2
(dp654
g56
S'http://rss.slashdot.org/Slashdot/slashdot'
p655
sg21
S'text/html'
p656
sg59
Nsg60
VAnti-Globalism writes "The major ISPs all tell a similar story: A mere 5 percent of their customers are using around 50 percent of the bandwidth, sometimes more, during peak hours. While these 'power users' are sharing three-gig movies and playing online games, poor granny is twiddling her thumbs waiting for Ancestry.com to load."<p><a href="http://tech.slashdot.org/article.pl?sid=08/09/07/0124242&amp;from=rss"><img src="http://slashdot.org/slashdot-it.pl?from=rss&amp;op=image&amp;style=h0&amp;sid=08/09/07/0124242" /></a></p><p><a href="http://tech.slashdot.org/article.pl?sid=08/09/07/0124242&amp;from=rss">Read more of this story</a> at Slashdot.</p>\u000a<p><a href="http://feedads.googleadservices.com/~a/WjOYvAs3pEKFOmRrYfZ53mgYySU/a"><img src="http://feedads.googleadservices.com/~a/WjOYvAs3pEKFOmRrYfZ53mgYySU/i" border="0" ismap="true" /></a></p><img src="http://feedproxy.google.com/~r/Slashdot/slashdot/~4/eIJs9wnHhYo" height="1" width="1" />
p657
stp658
Rp659
sg10
g11
((I2008
I9
I7
I11
I32
I0
I6
I251
I0
tp660
(dp661
tp662
Rp663
sg16
(lp664
g0
(g1
g2
(dp665
g19
Vhttp://rss.slashdot.org/~r/Slashdot/slashdot/~3/eIJs9wnHhYo/article.pl
p666
sg21
g22
sg23
g24
stp667
Rp668
asg33
(lp669
g0
(g1
g2
(dp670
g36
Vinternet
p671
sg38
Nsg39
Nstp672
Rp673
asS'slash_department'
p674
Vbecause-of-slate
p675
sS'feedburner_origlink'
p676
Vhttp://tech.slashdot.org/article.pl?sid=08/09/07/0124242&from=rss
p677
sg6
V2008-09-07T11:32:00+00:00
p678
sS'slash_section'
p679
Vtech
p680
sg45
g666
sS'slash_hit_parade'
p681
V619,614,492,349,79,50,36
p682
sg186
Vhttp://tech.slashdot.org/article.pl?sid=08/09/07/0124242&from=rss
p683
sS'slash_comments'
p684
V619
p685
sg47
VWhy Is the Internet So Infuriatingly Slow?
p686
sg91
Vtimothy
p687
sg192
VAnti-Globalism writes "The major ISPs all tell a similar story: A mere 5 percent of their customers are using around 50 percent of the bandwidth, sometimes more, during peak hours. While these 'power users' are sharing three-gig movies and playing online games, poor granny is twiddling her thumbs waiting for Ancestry.com to load."<p><a href="http://tech.slashdot.org/article.pl?sid=08/09/07/0124242&amp;from=rss"><img src="http://slashdot.org/slashdot-it.pl?from=rss&amp;op=image&amp;style=h0&amp;sid=08/09/07/0124242" /></a></p><p><a href="http://tech.slashdot.org/article.pl?sid=08/09/07/0124242&amp;from=rss">Read more of this story</a> at Slashdot.</p>\u000a<p><a href="http://feedads.googleadservices.com/~a/WjOYvAs3pEKFOmRrYfZ53mgYySU/a"><img src="http://feedads.googleadservices.com/~a/WjOYvAs3pEKFOmRrYfZ53mgYySU/i" border="0" ismap="true" /></a></p><img src="http://feedproxy.google.com/~r/Slashdot/slashdot/~4/eIJs9wnHhYo" height="1" width="1" />
p688
sS'title_detail'
p689
g0
(g1
g2
(dp690
g56
S'http://rss.slashdot.org/Slashdot/slashdot'
p691
sg21
S'text/plain'
p692
sg59
Nsg60
g686
stp693
Rp694
stp695
Rp696
ag0
(g1
g2
(dp697
S'summary_detail'
p698
g0
(g1
g2
(dp699
g56
S'http://rss.slashdot.org/Slashdot/slashdot'
p700
sg21
S'text/html'
p701
sg59
Nsg60
VAnti-Globalism writes with an excerpt from a story at Ars Technica, according to which "a preliminary study from a group of researchers in Quebec suggest that working on a computer may have an additional impact on our waistlines: taxing mental effort appears to cause people to eat significantly more food, even though it doesn't burn many more calories than sitting around and relaxing. The publication, published in a journal called Psychosomatic Medicine, arose from a pilot study that the researchers were performing in order to determine whether a potential connection between mental effort and eating was worth following up on."<p><a href="http://science.slashdot.org/article.pl?sid=08/09/07/0334251&amp;from=rss"><img src="http://slashdot.org/slashdot-it.pl?from=rss&amp;op=image&amp;style=h0&amp;sid=08/09/07/0334251" /></a></p><p><a href="http://science.slashdot.org/article.pl?sid=08/09/07/0334251&amp;from=rss">Read more of this story</a> at Slashdot.</p>\u000a<p><a href="http://feedads.googleadservices.com/~a/8USkt19Jun5GW2rTVqFwfzfo0io/a"><img src="http://feedads.googleadservices.com/~a/8USkt19Jun5GW2rTVqFwfzfo0io/i" border="0" ismap="true" /></a></p><img src="http://feedproxy.google.com/~r/Slashdot/slashdot/~4/pLeJ4Vk-ksY" height="1" width="1" />
p702
stp703
Rp704
sg10
g11
((I2008
I9
I7
I8
I36
I0
I6
I251
I0
tp705
(dp706
tp707
Rp708
sg16
(lp709
g0
(g1
g2
(dp710
g19
Vhttp://rss.slashdot.org/~r/Slashdot/slashdot/~3/pLeJ4Vk-ksY/article.pl
p711
sg21
g22
sg23
g24
stp712
Rp713
asg33
(lp714
g0
(g1
g2
(dp715
g36
Vscience
p716
sg38
Nsg39
Nstp717
Rp718
asS'slash_department'
p719
Vwe-only-use-10-percent-of-our-stomach
p720
sS'feedburner_origlink'
p721
Vhttp://science.slashdot.org/article.pl?sid=08/09/07/0334251&from=rss
p722
sg6
V2008-09-07T08:36:00+00:00
p723
sS'slash_section'
p724
Vscience
p725
sg45
g711
sS'slash_hit_parade'
p726
V129,125,104,70,24,15,14
p727
sg186
Vhttp://science.slashdot.org/article.pl?sid=08/09/07/0334251&from=rss
p728
sS'slash_comments'
p729
V129
p730
sg47
VCanadian Researchers Say Hard Thinking Leads to Big Meals
p731
sg91
Vtimothy
p732
sg192
VAnti-Globalism writes with an excerpt from a story at Ars Technica, according to which "a preliminary study from a group of researchers in Quebec suggest that working on a computer may have an additional impact on our waistlines: taxing mental effort appears to cause people to eat significantly more food, even though it doesn't burn many more calories than sitting around and relaxing. The publication, published in a journal called Psychosomatic Medicine, arose from a pilot study that the researchers were performing in order to determine whether a potential connection between mental effort and eating was worth following up on."<p><a href="http://science.slashdot.org/article.pl?sid=08/09/07/0334251&amp;from=rss"><img src="http://slashdot.org/slashdot-it.pl?from=rss&amp;op=image&amp;style=h0&amp;sid=08/09/07/0334251" /></a></p><p><a href="http://science.slashdot.org/article.pl?sid=08/09/07/0334251&amp;from=rss">Read more of this story</a> at Slashdot.</p>\u000a<p><a href="http://feedads.googleadservices.com/~a/8USkt19Jun5GW2rTVqFwfzfo0io/a"><img src="http://feedads.googleadservices.com/~a/8USkt19Jun5GW2rTVqFwfzfo0io/i" border="0" ismap="true" /></a></p><img src="http://feedproxy.google.com/~r/Slashdot/slashdot/~4/pLeJ4Vk-ksY" height="1" width="1" />
p733
sS'title_detail'
p734
g0
(g1
g2
(dp735
g56
S'http://rss.slashdot.org/Slashdot/slashdot'
p736
sg21
S'text/plain'
p737
sg59
Nsg60
g731
stp738
Rp739
stp740
Rp741
ag0
(g1
g2
(dp742
S'summary_detail'
p743
g0
(g1
g2
(dp744
g56
S'http://rss.slashdot.org/Slashdot/slashdot'
p745
sg21
S'text/html'
p746
sg59
Nsg60
VAn anonymous reader writes "When Google is clouding the borderline between web and the desktop, a much, much smaller project is blurring the border between the Internet and the physical reality: the newly released Contiki operating system version 2.2.1. Contiki runs on networked wireless sensors that are used for anything from road tunnel monitoring for fire rescue operations to collecting vital statistics from ice hockey players. These sensors typically have as little as a few kilobytes of memory and a few milliwatts of power budget &mdash; a thousandth of the resources of a typical PC computer &mdash; yet Contiki provides them with full TCP/IP connectivity. Meanwhile, San Francisco is monitoring parking spaces with wireless technology."<p><a href="http://tech.slashdot.org/article.pl?sid=08/09/07/0255243&amp;from=rss"><img src="http://slashdot.org/slashdot-it.pl?from=rss&amp;op=image&amp;style=h0&amp;sid=08/09/07/0255243" /></a></p><p><a href="http://tech.slashdot.org/article.pl?sid=08/09/07/0255243&amp;from=rss">Read more of this story</a> at Slashdot.</p>\u000a<p><a href="http://feedads.googleadservices.com/~a/iekkz8j8-y2M9jFddzI5VMRCnj4/a"><img src="http://feedads.googleadservices.com/~a/iekkz8j8-y2M9jFddzI5VMRCnj4/i" border="0" ismap="true" /></a></p><img src="http://feedproxy.google.com/~r/Slashdot/slashdot/~4/KvUNkzZfa4c" height="1" width="1" />
p747
stp748
Rp749
sg10
g11
((I2008
I9
I7
I5
I31
I0
I6
I251
I0
tp750
(dp751
tp752
Rp753
sg16
(lp754
g0
(g1
g2
(dp755
g19
Vhttp://rss.slashdot.org/~r/Slashdot/slashdot/~3/KvUNkzZfa4c/article.pl
p756
sg21
g22
sg23
g24
stp757
Rp758
asg33
(lp759
g0
(g1
g2
(dp760
g36
Vnetworking
p761
sg38
Nsg39
Nstp762
Rp763
asS'slash_department'
p764
Vconnecting-things-to-stuff
p765
sS'feedburner_origlink'
p766
Vhttp://tech.slashdot.org/article.pl?sid=08/09/07/0255243&from=rss
p767
sg6
V2008-09-07T05:31:00+00:00
p768
sS'slash_section'
p769
Vtech
p770
sg45
g756
sS'slash_hit_parade'
p771
V64,62,51,46,21,14,7
p772
sg186
Vhttp://tech.slashdot.org/article.pl?sid=08/09/07/0255243&from=rss
p773
sS'slash_comments'
p774
V64
p775
sg47
VTCP/IP Meets Physical Reality
p776
sg91
Vtimothy
p777
sg192
VAn anonymous reader writes "When Google is clouding the borderline between web and the desktop, a much, much smaller project is blurring the border between the Internet and the physical reality: the newly released Contiki operating system version 2.2.1. Contiki runs on networked wireless sensors that are used for anything from road tunnel monitoring for fire rescue operations to collecting vital statistics from ice hockey players. These sensors typically have as little as a few kilobytes of memory and a few milliwatts of power budget &mdash; a thousandth of the resources of a typical PC computer &mdash; yet Contiki provides them with full TCP/IP connectivity. Meanwhile, San Francisco is monitoring parking spaces with wireless technology."<p><a href="http://tech.slashdot.org/article.pl?sid=08/09/07/0255243&amp;from=rss"><img src="http://slashdot.org/slashdot-it.pl?from=rss&amp;op=image&amp;style=h0&amp;sid=08/09/07/0255243" /></a></p><p><a href="http://tech.slashdot.org/article.pl?sid=08/09/07/0255243&amp;from=rss">Read more of this story</a> at Slashdot.</p>\u000a<p><a href="http://feedads.googleadservices.com/~a/iekkz8j8-y2M9jFddzI5VMRCnj4/a"><img src="http://feedads.googleadservices.com/~a/iekkz8j8-y2M9jFddzI5VMRCnj4/i" border="0" ismap="true" /></a></p><img src="http://feedproxy.google.com/~r/Slashdot/slashdot/~4/KvUNkzZfa4c" height="1" width="1" />
p778
sS'title_detail'
p779
g0
(g1
g2
(dp780
g56
S'http://rss.slashdot.org/Slashdot/slashdot'
p781
sg21
S'text/plain'
p782
sg59
Nsg60
g776
stp783
Rp784
stp785
Rp786
ag0
(g1
g2
(dp787
S'summary_detail'
p788
g0
(g1
g2
(dp789
g56
S'http://rss.slashdot.org/Slashdot/slashdot'
p790
sg21
S'text/html'
p791
sg59
Nsg60
Vrm writes "Internet search and mail provider Yandex, which many view to be Google's main competitor in Russia, has recently added an instant messaging capability to its mail notifier application Ya.Online. As it turns out, the IM service is based on the open XMPP protocol, with connectivity to all other public Jabber servers available from day one. MacOS X and GNU/Linux versions of the app were also released (complete with sources under the GPL) and are determined to be based on the Psi IM client. Yandex looks to be a firm believer in open-source, also running a mirror site for FOSS and actively promoting its branded version of Firefox. Here's hoping that its affair with XMPP will help eliminate ICQ's enormous foothold in Russia."<p><a href="http://tech.slashdot.org/article.pl?sid=08/09/06/2350233&amp;from=rss"><img src="http://slashdot.org/slashdot-it.pl?from=rss&amp;op=image&amp;style=h0&amp;sid=08/09/06/2350233" /></a></p><p><a href="http://tech.slashdot.org/article.pl?sid=08/09/06/2350233&amp;from=rss">Read more of this story</a> at Slashdot.</p>\u000a<p><a href="http://feedads.googleadservices.com/~a/b3yF3zmwFcEKhX4wbdWp3oRSPjo/a"><img src="http://feedads.googleadservices.com/~a/b3yF3zmwFcEKhX4wbdWp3oRSPjo/i" border="0" ismap="true" /></a></p><img src="http://feedproxy.google.com/~r/Slashdot/slashdot/~4/GGcBBFCoIBg" height="1" width="1" />
p792
stp793
Rp794
sg10
g11
((I2008
I9
I7
I2
I25
I0
I6
I251
I0
tp795
(dp796
tp797
Rp798
sg16
(lp799
g0
(g1
g2
(dp800
g19
Vhttp://rss.slashdot.org/~r/Slashdot/slashdot/~3/GGcBBFCoIBg/article.pl
p801
sg21
g22
sg23
g24
stp802
Rp803
asg33
(lp804
g0
(g1
g2
(dp805
g36
Vcommunications
p806
sg38
Nsg39
Nstp807
Rp808
asS'slash_department'
p809
Vbilingual-pun-says-wikipedia
p810
sS'feedburner_origlink'
p811
Vhttp://tech.slashdot.org/article.pl?sid=08/09/06/2350233&from=rss
p812
sg6
V2008-09-07T02:25:00+00:00
p813
sS'slash_section'
p814
Vtech
p815
sg45
g801
sS'slash_hit_parade'
p816
V121,119,91,68,28,16,13
p817
sg186
Vhttp://tech.slashdot.org/article.pl?sid=08/09/06/2350233&from=rss
p818
sS'slash_comments'
p819
V121
p820
sg47
VRussian Google Competitor Embraces Open Source Messaging
p821
sg91
Vtimothy
p822
sg192
Vrm writes "Internet search and mail provider Yandex, which many view to be Google's main competitor in Russia, has recently added an instant messaging capability to its mail notifier application Ya.Online. As it turns out, the IM service is based on the open XMPP protocol, with connectivity to all other public Jabber servers available from day one. MacOS X and GNU/Linux versions of the app were also released (complete with sources under the GPL) and are determined to be based on the Psi IM client. Yandex looks to be a firm believer in open-source, also running a mirror site for FOSS and actively promoting its branded version of Firefox. Here's hoping that its affair with XMPP will help eliminate ICQ's enormous foothold in Russia."<p><a href="http://tech.slashdot.org/article.pl?sid=08/09/06/2350233&amp;from=rss"><img src="http://slashdot.org/slashdot-it.pl?from=rss&amp;op=image&amp;style=h0&amp;sid=08/09/06/2350233" /></a></p><p><a href="http://tech.slashdot.org/article.pl?sid=08/09/06/2350233&amp;from=rss">Read more of this story</a> at Slashdot.</p>\u000a<p><a href="http://feedads.googleadservices.com/~a/b3yF3zmwFcEKhX4wbdWp3oRSPjo/a"><img src="http://feedads.googleadservices.com/~a/b3yF3zmwFcEKhX4wbdWp3oRSPjo/i" border="0" ismap="true" /></a></p><img src="http://feedproxy.google.com/~r/Slashdot/slashdot/~4/GGcBBFCoIBg" height="1" width="1" />
p823
sS'title_detail'
p824
g0
(g1
g2
(dp825
g56
S'http://rss.slashdot.org/Slashdot/slashdot'
p826
sg21
S'text/plain'
p827
sg59
Nsg60
g821
stp828
Rp829
stp830
Rp831
astp832
Rp833
.